; Function Attrs: mustprogress uwtable
define internal void @_ZN5faiss12_GLOBAL__N_114IVFSQScannerL2INS0_20DistanceComputerByteINS0_12SimilarityL2ILi1EEELi1EEELi0EE8set_listElf(ptr nocapture noundef nonnull align 8 dereferenceable(152) %0, i64 noundef %1, float %2) unnamed_addr #0 align 2 {
  %4 = getelementptr inbounds i8, ptr %0, i64 8
  store i64 %1, ptr %4, align 8
  %5 = getelementptr inbounds i8, ptr %0, i64 104
  %6 = load i8, ptr %5, align 8
  %7 = and i8 %6, 1
  %.not = icmp eq i8 %7, 0
  br i1 %.not, label %33, label %8

8:                                                ; preds = %3
  %9 = getelementptr inbounds i8, ptr %0, i64 112
  %10 = load ptr, ptr %9, align 8
  %11 = getelementptr inbounds i8, ptr %0, i64 120
  %12 = load ptr, ptr %11, align 8
  %13 = getelementptr inbounds i8, ptr %0, i64 128
  %14 = load ptr, ptr %13, align 8
  %15 = load ptr, ptr %10, align 8
  %16 = getelementptr inbounds i8, ptr %15, i64 112
  %17 = load ptr, ptr %16, align 8
  tail call void %17(ptr noundef nonnull align 8 dereferenceable(36) %10, ptr noundef %12, ptr noundef %14, i64 noundef %1)
  %18 = load ptr, ptr %13, align 8
  %19 = getelementptr inbounds i8, ptr %0, i64 72
  %20 = load i32, ptr %19, align 8
  %21 = icmp sgt i32 %20, 0
  br i1 %21, label %.lr.ph.i, label %_ZN5faiss12_GLOBAL__N_120DistanceComputerByteINS0_12SimilarityL2ILi1EEELi1EE9set_queryEPKf.exit

.lr.ph.i:                                         ; preds = %8
  %22 = getelementptr inbounds i8, ptr %0, i64 80
  br label %23

23:                                               ; preds = %23, %.lr.ph.i
  %indvars.iv.i = phi i64 [ 0, %.lr.ph.i ], [ %indvars.iv.next.i, %23 ]
  %24 = getelementptr inbounds float, ptr %18, i64 %indvars.iv.i
  %25 = load float, ptr %24, align 4
  %26 = fptosi float %25 to i32
  %27 = trunc i32 %26 to i8
  %28 = load ptr, ptr %22, align 8
  %29 = getelementptr inbounds i8, ptr %28, i64 %indvars.iv.i
  store i8 %27, ptr %29, align 1
  %indvars.iv.next.i = add nuw nsw i64 %indvars.iv.i, 1
  %30 = load i32, ptr %19, align 8
  %31 = sext i32 %30 to i64
  %32 = icmp slt i64 %indvars.iv.next.i, %31
  br i1 %32, label %23, label %_ZN5faiss12_GLOBAL__N_120DistanceComputerByteINS0_12SimilarityL2ILi1EEELi1EE9set_queryEPKf.exit, !llvm.loop !56

33:                                               ; preds = %3
  %34 = getelementptr inbounds i8, ptr %0, i64 120
  %35 = load ptr, ptr %34, align 8
  %36 = getelementptr inbounds i8, ptr %0, i64 72
  %37 = load i32, ptr %36, align 8
  %38 = icmp sgt i32 %37, 0
  br i1 %38, label %.lr.ph.i2, label %_ZN5faiss12_GLOBAL__N_120DistanceComputerByteINS0_12SimilarityL2ILi1EEELi1EE9set_queryEPKf.exit

.lr.ph.i2:                                        ; preds = %33
  %39 = getelementptr inbounds i8, ptr %0, i64 80
  br label %40

40:                                               ; preds = %40, %.lr.ph.i2
  %indvars.iv.i3 = phi i64 [ 0, %.lr.ph.i2 ], [ %indvars.iv.next.i4, %40 ]
  %41 = getelementptr inbounds float, ptr %35, i64 %indvars.iv.i3
  %42 = load float, ptr %41, align 4
  %43 = fptosi float %42 to i32
  %44 = trunc i32 %43 to i8
  %45 = load ptr, ptr %39, align 8
  %46 = getelementptr inbounds i8, ptr %45, i64 %indvars.iv.i3
  store i8 %44, ptr %46, align 1
  %indvars.iv.next.i4 = add nuw nsw i64 %indvars.iv.i3, 1
  %47 = load i32, ptr %36, align 8
  %48 = sext i32 %47 to i64
  %49 = icmp slt i64 %indvars.iv.next.i4, %48
  br i1 %49, label %40, label %_ZN5faiss12_GLOBAL__N_120DistanceComputerByteINS0_12SimilarityL2ILi1EEELi1EE9set_queryEPKf.exit, !llvm.loop !56

_ZN5faiss12_GLOBAL__N_120DistanceComputerByteINS0_12SimilarityL2ILi1EEELi1EE9set_queryEPKf.exit: ; preds = %23, %40, %33, %8
  ret void
}